target datalayout = "e-m:e-p270:32:32-p271:32:32-p272:64:64-i64:64-i128:128-f80:128-n8:16:32:64-S128"
target triple = "x86_64-pc-linux-gnu"

%struct.SwrContext = type { ptr, i32, ptr, i32, i32, i32, %struct.AVChannelLayout, %struct.AVChannelLayout, %struct.AVChannelLayout, i32, i32, i32, float, float, float, float, float, i32, ptr, i32, %struct.AVChannelLayout, %struct.AVChannelLayout, %struct.AVChannelLayout, i32, i32, %struct.DitherContext, i32, i32, i32, i32, double, i32, double, double, i32, float, float, float, float, float, i64, i32, i32, i32, %struct.AudioData, %struct.AudioData, %struct.AudioData, %struct.AudioData, %struct.AudioData, %struct.AudioData, %struct.AudioData, %struct.AudioData, i32, i32, i32, i32, i64, i64, i32, double, ptr, ptr, ptr, ptr, ptr, [64 x [64 x double]], [64 x [64 x float]], ptr, ptr, ptr, ptr, [64 x [64 x i32]], [64 x [65 x i8]], ptr, ptr, ptr, ptr, ptr }
%struct.AVChannelLayout = type { i32, i32, %union.anon, ptr }
%union.anon = type { i64 }
%struct.DitherContext = type { i32, i32, float, float, i32, float, float, i32, [20 x float], [64 x [40 x float]], %struct.AudioData, %struct.AudioData, i32 }
%struct.AudioData = type { [64 x ptr], ptr, i32, i32, i32, i32, i32 }

; Function Attrs: nounwind uwtable
define void @swri_noise_shaping_int32(ptr noundef %0, ptr noundef %1, ptr noundef %2, ptr noundef %3, i32 noundef %4) #0 {
  %6 = alloca ptr, align 8
  %7 = alloca ptr, align 8
  %8 = alloca ptr, align 8
  %9 = alloca ptr, align 8
  %10 = alloca i32, align 4
  %11 = alloca i32, align 4
  %12 = alloca i32, align 4
  %13 = alloca i32, align 4
  %14 = alloca i32, align 4
  %15 = alloca i32, align 4
  %16 = alloca float, align 4
  %17 = alloca float, align 4
  %18 = alloca ptr, align 8
  %19 = alloca ptr, align 8
  %20 = alloca ptr, align 8
  %21 = alloca ptr, align 8
  %22 = alloca ptr, align 8
  %23 = alloca double, align 8
  %24 = alloca double, align 8
  store ptr %0, ptr %6, align 8, !tbaa !4
  store ptr %1, ptr %7, align 8, !tbaa !51
  store ptr %2, ptr %8, align 8, !tbaa !51
  store ptr %3, ptr %9, align 8, !tbaa !51
  store i32 %4, ptr %10, align 4, !tbaa !10
  call void @llvm.lifetime.start.p0(i64 4, ptr %11) #7
  %25 = load ptr, ptr %6, align 8, !tbaa !4
  %26 = getelementptr inbounds nuw %struct.SwrContext, ptr %25, i32 0, i32 25
  %27 = getelementptr inbounds nuw %struct.DitherContext, ptr %26, i32 0, i32 7
  %28 = load i32, ptr %27, align 4, !tbaa !38
  store i32 %28, ptr %11, align 4, !tbaa !10
  call void @llvm.lifetime.start.p0(i64 4, ptr %12) #7
  call void @llvm.lifetime.start.p0(i64 4, ptr %13) #7
  call void @llvm.lifetime.start.p0(i64 4, ptr %14) #7
  call void @llvm.lifetime.start.p0(i64 4, ptr %15) #7
  %29 = load ptr, ptr %6, align 8, !tbaa !4
  %30 = getelementptr inbounds nuw %struct.SwrContext, ptr %29, i32 0, i32 25
  %31 = getelementptr inbounds nuw %struct.DitherContext, ptr %30, i32 0, i32 4
  %32 = load i32, ptr %31, align 8, !tbaa !47
  store i32 %32, ptr %15, align 4, !tbaa !10
  call void @llvm.lifetime.start.p0(i64 4, ptr %16) #7
  %33 = load ptr, ptr %6, align 8, !tbaa !4
  %34 = getelementptr inbounds nuw %struct.SwrContext, ptr %33, i32 0, i32 25
  %35 = getelementptr inbounds nuw %struct.DitherContext, ptr %34, i32 0, i32 5
  %36 = load float, ptr %35, align 4, !tbaa !39
  store float %36, ptr %16, align 4, !tbaa !34
  call void @llvm.lifetime.start.p0(i64 4, ptr %17) #7
  %37 = load ptr, ptr %6, align 8, !tbaa !4
  %38 = getelementptr inbounds nuw %struct.SwrContext, ptr %37, i32 0, i32 25
  %39 = getelementptr inbounds nuw %struct.DitherContext, ptr %38, i32 0, i32 6
  %40 = load float, ptr %39, align 8, !tbaa !40
  store float %40, ptr %17, align 4, !tbaa !34
  store i32 0, ptr %14, align 4, !tbaa !10
  br label %41

41:                                               ; preds = %259, %5
  %42 = load i32, ptr %14, align 4, !tbaa !10
  %43 = load ptr, ptr %8, align 8, !tbaa !51
  %44 = getelementptr inbounds nuw %struct.AudioData, ptr %43, i32 0, i32 2
  %45 = load i32, ptr %44, align 8, !tbaa !53
  %46 = icmp slt i32 %42, %45
  br i1 %46, label %47, label %262

47:                                               ; preds = %41
  call void @llvm.lifetime.start.p0(i64 8, ptr %18) #7
  %48 = load ptr, ptr %9, align 8, !tbaa !51
  %49 = getelementptr inbounds nuw %struct.AudioData, ptr %48, i32 0, i32 0
  %50 = load i32, ptr %14, align 4, !tbaa !10
  %51 = sext i32 %50 to i64
  %52 = getelementptr inbounds [64 x ptr], ptr %49, i64 0, i64 %51
  %53 = load ptr, ptr %52, align 8, !tbaa !54
  %54 = load ptr, ptr %6, align 8, !tbaa !4
  %55 = getelementptr inbounds nuw %struct.SwrContext, ptr %54, i32 0, i32 25
  %56 = getelementptr inbounds nuw %struct.DitherContext, ptr %55, i32 0, i32 1
  %57 = load i32, ptr %56, align 4, !tbaa !55
  %58 = sext i32 %57 to i64
  %59 = getelementptr inbounds float, ptr %53, i64 %58
  store ptr %59, ptr %18, align 8, !tbaa !56
  call void @llvm.lifetime.start.p0(i64 8, ptr %19) #7
  %60 = load ptr, ptr %8, align 8, !tbaa !51
  %61 = getelementptr inbounds nuw %struct.AudioData, ptr %60, i32 0, i32 0
  %62 = load i32, ptr %14, align 4, !tbaa !10
  %63 = sext i32 %62 to i64
  %64 = getelementptr inbounds [64 x ptr], ptr %61, i64 0, i64 %63
  %65 = load ptr, ptr %64, align 8, !tbaa !54
  store ptr %65, ptr %19, align 8, !tbaa !63
  call void @llvm.lifetime.start.p0(i64 8, ptr %20) #7
  %66 = load ptr, ptr %7, align 8, !tbaa !51
  %67 = getelementptr inbounds nuw %struct.AudioData, ptr %66, i32 0, i32 0
  %68 = load i32, ptr %14, align 4, !tbaa !10
  %69 = sext i32 %68 to i64
  %70 = getelementptr inbounds [64 x ptr], ptr %67, i64 0, i64 %69
  %71 = load ptr, ptr %70, align 8, !tbaa !54
  store ptr %71, ptr %20, align 8, !tbaa !63
  call void @llvm.lifetime.start.p0(i64 8, ptr %21) #7
  %72 = load ptr, ptr %6, align 8, !tbaa !4
  %73 = getelementptr inbounds nuw %struct.SwrContext, ptr %72, i32 0, i32 25
  %74 = getelementptr inbounds nuw %struct.DitherContext, ptr %73, i32 0, i32 9
  %75 = load i32, ptr %14, align 4, !tbaa !10
  %76 = sext i32 %75 to i64
  %77 = getelementptr inbounds [64 x [40 x float]], ptr %74, i64 0, i64 %76
  %78 = getelementptr inbounds [40 x float], ptr %77, i64 0, i64 0
  store ptr %78, ptr %21, align 8, !tbaa !56
  call void @llvm.lifetime.start.p0(i64 8, ptr %22) #7
  %79 = load ptr, ptr %6, align 8, !tbaa !4
  %80 = getelementptr inbounds nuw %struct.SwrContext, ptr %79, i32 0, i32 25
  %81 = getelementptr inbounds nuw %struct.DitherContext, ptr %80, i32 0, i32 8
  %82 = getelementptr inbounds [20 x float], ptr %81, i64 0, i64 0
  store ptr %82, ptr %22, align 8, !tbaa !56
  %83 = load ptr, ptr %6, align 8, !tbaa !4
  %84 = getelementptr inbounds nuw %struct.SwrContext, ptr %83, i32 0, i32 25
  %85 = getelementptr inbounds nuw %struct.DitherContext, ptr %84, i32 0, i32 7
  %86 = load i32, ptr %85, align 4, !tbaa !38
  store i32 %86, ptr %11, align 4, !tbaa !10
  store i32 0, ptr %12, align 4, !tbaa !10
  br label %87

87:                                               ; preds = %255, %47
  %88 = load i32, ptr %12, align 4, !tbaa !10
  %89 = load i32, ptr %10, align 4, !tbaa !10
  %90 = icmp slt i32 %88, %89
  br i1 %90, label %91, label %258

91:                                               ; preds = %87
  call void @llvm.lifetime.start.p0(i64 8, ptr %23) #7
  call void @llvm.lifetime.start.p0(i64 8, ptr %24) #7
  %92 = load ptr, ptr %19, align 8, !tbaa !63
  %93 = load i32, ptr %12, align 4, !tbaa !10
  %94 = sext i32 %93 to i64
  %95 = getelementptr inbounds i32, ptr %92, i64 %94
  %96 = load i32, ptr %95, align 4, !tbaa !10
  %97 = sitofp i32 %96 to float
  %98 = load float, ptr %17, align 4, !tbaa !34
  %99 = fmul nsz float %97, %98
  %100 = fpext nsz float %99 to double
  store double %100, ptr %24, align 8, !tbaa !26
  store i32 0, ptr %13, align 4, !tbaa !10
  br label %101

101:                                              ; preds = %168, %91
  %102 = load i32, ptr %13, align 4, !tbaa !10
  %103 = load i32, ptr %15, align 4, !tbaa !10
  %104 = sub nsw i32 %103, 2
  %105 = icmp slt i32 %102, %104
  br i1 %105, label %106, label %171

106:                                              ; preds = %101
  %107 = load ptr, ptr %22, align 8, !tbaa !56
  %108 = load i32, ptr %13, align 4, !tbaa !10
  %109 = sext i32 %108 to i64
  %110 = getelementptr inbounds float, ptr %107, i64 %109
  %111 = load float, ptr %110, align 4, !tbaa !34
  %112 = load ptr, ptr %21, align 8, !tbaa !56
  %113 = load i32, ptr %11, align 4, !tbaa !10
  %114 = load i32, ptr %13, align 4, !tbaa !10
  %115 = add nsw i32 %113, %114
  %116 = sext i32 %115 to i64
  %117 = getelementptr inbounds float, ptr %112, i64 %116
  %118 = load float, ptr %117, align 4, !tbaa !34
  %119 = load ptr, ptr %22, align 8, !tbaa !56
  %120 = load i32, ptr %13, align 4, !tbaa !10
  %121 = add nsw i32 %120, 1
  %122 = sext i32 %121 to i64
  %123 = getelementptr inbounds float, ptr %119, i64 %122
  %124 = load float, ptr %123, align 4, !tbaa !34
  %125 = load ptr, ptr %21, align 8, !tbaa !56
  %126 = load i32, ptr %11, align 4, !tbaa !10
  %127 = load i32, ptr %13, align 4, !tbaa !10
  %128 = add nsw i32 %126, %127
  %129 = add nsw i32 %128, 1
  %130 = sext i32 %129 to i64
  %131 = getelementptr inbounds float, ptr %125, i64 %130
  %132 = load float, ptr %131, align 4, !tbaa !34
  %133 = fmul nsz float %124, %132
  %134 = call nsz float @llvm.fmuladd.f32(float %111, float %118, float %133)
  %135 = load ptr, ptr %22, align 8, !tbaa !56
  %136 = load i32, ptr %13, align 4, !tbaa !10
  %137 = add nsw i32 %136, 2
  %138 = sext i32 %137 to i64
  %139 = getelementptr inbounds float, ptr %135, i64 %138
  %140 = load float, ptr %139, align 4, !tbaa !34
  %141 = load ptr, ptr %21, align 8, !tbaa !56
  %142 = load i32, ptr %11, align 4, !tbaa !10
  %143 = load i32, ptr %13, align 4, !tbaa !10
  %144 = add nsw i32 %142, %143
  %145 = add nsw i32 %144, 2
  %146 = sext i32 %145 to i64
  %147 = getelementptr inbounds float, ptr %141, i64 %146
  %148 = load float, ptr %147, align 4, !tbaa !34
  %149 = call nsz float @llvm.fmuladd.f32(float %140, float %148, float %134)
  %150 = load ptr, ptr %22, align 8, !tbaa !56
  %151 = load i32, ptr %13, align 4, !tbaa !10
  %152 = add nsw i32 %151, 3
  %153 = sext i32 %152 to i64
  %154 = getelementptr inbounds float, ptr %150, i64 %153
  %155 = load float, ptr %154, align 4, !tbaa !34
  %156 = load ptr, ptr %21, align 8, !tbaa !56
  %157 = load i32, ptr %11, align 4, !tbaa !10
  %158 = load i32, ptr %13, align 4, !tbaa !10
  %159 = add nsw i32 %157, %158
  %160 = add nsw i32 %159, 3
  %161 = sext i32 %160 to i64
  %162 = getelementptr inbounds float, ptr %156, i64 %161
  %163 = load float, ptr %162, align 4, !tbaa !34
  %164 = call nsz float @llvm.fmuladd.f32(float %155, float %163, float %149)
  %165 = fpext nsz float %164 to double
  %166 = load double, ptr %24, align 8, !tbaa !26
  %167 = fsub nsz double %166, %165
  store double %167, ptr %24, align 8, !tbaa !26
  br label %168

168:                                              ; preds = %106
  %169 = load i32, ptr %13, align 4, !tbaa !10
  %170 = add nsw i32 %169, 4
  store i32 %170, ptr %13, align 4, !tbaa !10
  br label %101, !llvm.loop !64

171:                                              ; preds = %101
  %172 = load i32, ptr %13, align 4, !tbaa !10
  %173 = load i32, ptr %15, align 4, !tbaa !10
  %174 = icmp slt i32 %172, %173
  br i1 %174, label %175, label %192

175:                                              ; preds = %171
  %176 = load ptr, ptr %22, align 8, !tbaa !56
  %177 = load i32, ptr %13, align 4, !tbaa !10
  %178 = sext i32 %177 to i64
  %179 = getelementptr inbounds float, ptr %176, i64 %178
  %180 = load float, ptr %179, align 4, !tbaa !34
  %181 = load ptr, ptr %21, align 8, !tbaa !56
  %182 = load i32, ptr %11, align 4, !tbaa !10
  %183 = load i32, ptr %13, align 4, !tbaa !10
  %184 = add nsw i32 %182, %183
  %185 = sext i32 %184 to i64
  %186 = getelementptr inbounds float, ptr %181, i64 %185
  %187 = load float, ptr %186, align 4, !tbaa !34
  %188 = fmul nsz float %180, %187
  %189 = fpext nsz float %188 to double
  %190 = load double, ptr %24, align 8, !tbaa !26
  %191 = fsub nsz double %190, %189
  store double %191, ptr %24, align 8, !tbaa !26
  br label %192

192:                                              ; preds = %175, %171
  %193 = load i32, ptr %11, align 4, !tbaa !10
  %194 = icmp ne i32 %193, 0
  br i1 %194, label %195, label %198

195:                                              ; preds = %192
  %196 = load i32, ptr %11, align 4, !tbaa !10
  %197 = sub nsw i32 %196, 1
  br label %201

198:                                              ; preds = %192
  %199 = load i32, ptr %15, align 4, !tbaa !10
  %200 = sub nsw i32 %199, 1
  br label %201

201:                                              ; preds = %198, %195
  %202 = phi i32 [ %197, %195 ], [ %200, %198 ]
  store i32 %202, ptr %11, align 4, !tbaa !10
  %203 = load double, ptr %24, align 8, !tbaa !26
  %204 = load ptr, ptr %18, align 8, !tbaa !56
  %205 = load i32, ptr %12, align 4, !tbaa !10
  %206 = sext i32 %205 to i64
  %207 = getelementptr inbounds float, ptr %204, i64 %206
  %208 = load float, ptr %207, align 4, !tbaa !34
  %209 = fpext nsz float %208 to double
  %210 = fadd nsz double %203, %209
  %211 = call nsz double @llvm.rint.f64(double %210)
  store double %211, ptr %23, align 8, !tbaa !26
  %212 = load double, ptr %23, align 8, !tbaa !26
  %213 = load double, ptr %24, align 8, !tbaa !26
  %214 = fsub nsz double %212, %213
  %215 = fptrunc nsz double %214 to float
  %216 = load ptr, ptr %21, align 8, !tbaa !56
  %217 = load i32, ptr %11, align 4, !tbaa !10
  %218 = sext i32 %217 to i64
  %219 = getelementptr inbounds float, ptr %216, i64 %218
  store float %215, ptr %219, align 4, !tbaa !34
  %220 = load ptr, ptr %21, align 8, !tbaa !56
  %221 = load i32, ptr %11, align 4, !tbaa !10
  %222 = load i32, ptr %15, align 4, !tbaa !10
  %223 = add nsw i32 %221, %222
  %224 = sext i32 %223 to i64
  %225 = getelementptr inbounds float, ptr %220, i64 %224
  store float %215, ptr %225, align 4, !tbaa !34
  %226 = load float, ptr %16, align 4, !tbaa !34
  %227 = fpext nsz float %226 to double
  %228 = load double, ptr %23, align 8, !tbaa !26
  %229 = fmul nsz double %228, %227
  store double %229, ptr %23, align 8, !tbaa !26
  %230 = load double, ptr %23, align 8, !tbaa !26
  %231 = fcmp nsz ogt double %230, 0x41DFFFFFFFC00000
  br i1 %231, label %232, label %233

232:                                              ; preds = %201
  br label %235

233:                                              ; preds = %201
  %234 = load double, ptr %23, align 8, !tbaa !26
  br label %235

235:                                              ; preds = %233, %232
  %236 = phi nsz double [ 0x41DFFFFFFFC00000, %232 ], [ %234, %233 ]
  %237 = fcmp nsz ogt double %236, 0xC1E0000000000000
  br i1 %237, label %238, label %246

238:                                              ; preds = %235
  %239 = load double, ptr %23, align 8, !tbaa !26
  %240 = fcmp nsz ogt double %239, 0x41DFFFFFFFC00000
  br i1 %240, label %241, label %242

241:                                              ; preds = %238
  br label %244

242:                                              ; preds = %238
  %243 = load double, ptr %23, align 8, !tbaa !26
  br label %244

244:                                              ; preds = %242, %241
  %245 = phi nsz double [ 0x41DFFFFFFFC00000, %241 ], [ %243, %242 ]
  br label %247

246:                                              ; preds = %235
  br label %247

247:                                              ; preds = %246, %244
  %248 = phi nsz double [ %245, %244 ], [ 0xC1E0000000000000, %246 ]
  store double %248, ptr %23, align 8, !tbaa !26
  %249 = load double, ptr %23, align 8, !tbaa !26
  %250 = fptosi double %249 to i32
  %251 = load ptr, ptr %20, align 8, !tbaa !63
  %252 = load i32, ptr %12, align 4, !tbaa !10
  %253 = sext i32 %252 to i64
  %254 = getelementptr inbounds i32, ptr %251, i64 %253
  store i32 %250, ptr %254, align 4, !tbaa !10
  call void @llvm.lifetime.end.p0(i64 8, ptr %24) #7
  call void @llvm.lifetime.end.p0(i64 8, ptr %23) #7
  br label %255

255:                                              ; preds = %247
  %256 = load i32, ptr %12, align 4, !tbaa !10
  %257 = add nsw i32 %256, 1
  store i32 %257, ptr %12, align 4, !tbaa !10
  br label %87, !llvm.loop !65

258:                                              ; preds = %87
  call void @llvm.lifetime.end.p0(i64 8, ptr %22) #7
  call void @llvm.lifetime.end.p0(i64 8, ptr %21) #7
  call void @llvm.lifetime.end.p0(i64 8, ptr %20) #7
  call void @llvm.lifetime.end.p0(i64 8, ptr %19) #7
  call void @llvm.lifetime.end.p0(i64 8, ptr %18) #7
  br label %259

259:                                              ; preds = %258
  %260 = load i32, ptr %14, align 4, !tbaa !10
  %261 = add nsw i32 %260, 1
  store i32 %261, ptr %14, align 4, !tbaa !10
  br label %41, !llvm.loop !66

262:                                              ; preds = %41
  %263 = load i32, ptr %11, align 4, !tbaa !10
  %264 = load ptr, ptr %6, align 8, !tbaa !4
  %265 = getelementptr inbounds nuw %struct.SwrContext, ptr %264, i32 0, i32 25
  %266 = getelementptr inbounds nuw %struct.DitherContext, ptr %265, i32 0, i32 7
  store i32 %263, ptr %266, align 4, !tbaa !38
  call void @llvm.lifetime.end.p0(i64 4, ptr %17) #7
  call void @llvm.lifetime.end.p0(i64 4, ptr %16) #7
  call void @llvm.lifetime.end.p0(i64 4, ptr %15) #7
  call void @llvm.lifetime.end.p0(i64 4, ptr %14) #7
  call void @llvm.lifetime.end.p0(i64 4, ptr %13) #7
  call void @llvm.lifetime.end.p0(i64 4, ptr %12) #7
  call void @llvm.lifetime.end.p0(i64 4, ptr %11) #7
  ret void
}