; Function Attrs: nofree norecurse nosync nounwind memory(readwrite, inaccessiblemem: none) uwtable
define void @swri_noise_shaping_int32(ptr noundef captures(none) %0, ptr noundef readonly captures(none) %1, ptr noundef readonly captures(none) %2, ptr noundef readonly captures(none) %3, i32 noundef %4) local_unnamed_addr #6 {
  %6 = getelementptr inbounds nuw i8, ptr %0, i64 276
  %7 = load i32, ptr %6, align 4, !tbaa !33
  %8 = getelementptr inbounds nuw i8, ptr %0, i64 264
  %9 = load i32, ptr %8, align 8, !tbaa !42
  %10 = getelementptr inbounds nuw i8, ptr %0, i64 272
  %11 = load float, ptr %10, align 8, !tbaa !35
  %12 = getelementptr inbounds nuw i8, ptr %2, i64 520
  %13 = load i32, ptr %12, align 8, !tbaa !47
  %14 = icmp sgt i32 %13, 0
  br i1 %14, label %.lr.ph96, label %._crit_edge97

.lr.ph96:                                         ; preds = %5
  %15 = getelementptr inbounds nuw i8, ptr %0, i64 268
  %16 = load float, ptr %15, align 4, !tbaa !34
  %17 = getelementptr inbounds nuw i8, ptr %0, i64 252
  %18 = getelementptr inbounds nuw i8, ptr %0, i64 360
  %19 = getelementptr inbounds nuw i8, ptr %0, i64 280
  %20 = icmp sgt i32 %4, 0
  %21 = icmp sgt i32 %9, 2
  %22 = fpext nsz float %16 to double
  br i1 %20, label %.lr.ph91.us.preheader, label %._crit_edge97

.lr.ph91.us.preheader:                            ; preds = %.lr.ph96
  %23 = add nsw i32 %9, -2
  %24 = sext i32 %23 to i64
  %wide.trip.count = zext nneg i32 %4 to i64
  br label %.lr.ph91.us

.lr.ph91.us:                                      ; preds = %.lr.ph91.us.preheader, %._crit_edge92.us
  %indvars.iv105 = phi i64 [ 0, %.lr.ph91.us.preheader ], [ %indvars.iv.next106, %._crit_edge92.us ]
  %25 = getelementptr inbounds nuw [64 x ptr], ptr %3, i64 0, i64 %indvars.iv105
  %26 = load ptr, ptr %25, align 8, !tbaa !49
  %27 = load i32, ptr %17, align 4, !tbaa !48
  %28 = sext i32 %27 to i64
  %29 = getelementptr inbounds float, ptr %26, i64 %28
  %30 = getelementptr inbounds nuw [64 x ptr], ptr %2, i64 0, i64 %indvars.iv105
  %31 = load ptr, ptr %30, align 8, !tbaa !49
  %32 = getelementptr inbounds nuw [64 x ptr], ptr %1, i64 0, i64 %indvars.iv105
  %33 = load ptr, ptr %32, align 8, !tbaa !49
  %34 = getelementptr inbounds nuw [64 x [40 x float]], ptr %18, i64 0, i64 %indvars.iv105
  %35 = load i32, ptr %6, align 4, !tbaa !33
  br label %36

36:                                               ; preds = %.lr.ph91.us, %56
  %indvars.iv102 = phi i64 [ 0, %.lr.ph91.us ], [ %indvars.iv.next103, %56 ]
  %.18089.us = phi i32 [ %35, %.lr.ph91.us ], [ %57, %56 ]
  %37 = getelementptr inbounds nuw i32, ptr %31, i64 %indvars.iv102
  %38 = load i32, ptr %37, align 4, !tbaa !28
  %39 = sitofp i32 %38 to float
  %40 = fmul nsz float %11, %39
  %41 = fpext nsz float %40 to double
  br i1 %21, label %.lr.ph.us.preheader, label %._crit_edge.us

.lr.ph.us.preheader:                              ; preds = %36
  %42 = sext i32 %.18089.us to i64
  %invariant.gep = getelementptr float, ptr %34, i64 %42
  br label %.lr.ph.us

._crit_edge.us.loopexit:                          ; preds = %.lr.ph.us
  %43 = trunc nuw nsw i64 %indvars.iv.next to i32
  br label %._crit_edge.us

._crit_edge.us:                                   ; preds = %._crit_edge.us.loopexit, %36
  %.082.lcssa.us = phi i32 [ 0, %36 ], [ %43, %._crit_edge.us.loopexit ]
  %.0.lcssa.us = phi double [ %41, %36 ], [ %97, %._crit_edge.us.loopexit ]
  %44 = icmp slt i32 %.082.lcssa.us, %9
  br i1 %44, label %45, label %56

45:                                               ; preds = %._crit_edge.us
  %46 = zext nneg i32 %.082.lcssa.us to i64
  %47 = getelementptr inbounds nuw float, ptr %19, i64 %46
  %48 = load float, ptr %47, align 4, !tbaa !29
  %49 = add nsw i32 %.082.lcssa.us, %.18089.us
  %50 = sext i32 %49 to i64
  %51 = getelementptr inbounds float, ptr %34, i64 %50
  %52 = load float, ptr %51, align 4, !tbaa !29
  %53 = fmul nsz float %48, %52
  %54 = fpext nsz float %53 to double
  %55 = fsub nsz double %.0.lcssa.us, %54
  br label %56

56:                                               ; preds = %45, %._crit_edge.us
  %.1.us = phi nsz double [ %55, %45 ], [ %.0.lcssa.us, %._crit_edge.us ]
  %.not.us = icmp eq i32 %.18089.us, 0
  %.v.us = select i1 %.not.us, i32 %9, i32 %.18089.us
  %57 = add nsw i32 %.v.us, -1
  %58 = getelementptr inbounds nuw float, ptr %29, i64 %indvars.iv102
  %59 = load float, ptr %58, align 4, !tbaa !29
  %60 = fpext nsz float %59 to double
  %61 = fadd nsz double %.1.us, %60
  %62 = tail call nsz double @llvm.rint.f64(double %61)
  %63 = fsub nsz double %62, %.1.us
  %64 = fptrunc nsz double %63 to float
  %65 = sext i32 %57 to i64
  %66 = getelementptr inbounds float, ptr %34, i64 %65
  store float %64, ptr %66, align 4, !tbaa !29
  %67 = add nsw i32 %57, %9
  %68 = sext i32 %67 to i64
  %69 = getelementptr inbounds float, ptr %34, i64 %68
  store float %64, ptr %69, align 4, !tbaa !29
  %70 = fmul nsz double %62, %22
  %71 = fcmp nsz ogt double %70, 0x41DFFFFFFFC00000
  %72 = select nsz i1 %71, double 0x41DFFFFFFFC00000, double %70
  %73 = fcmp nsz ogt double %72, 0xC1E0000000000000
  %74 = select i1 %73, double %72, double 0xC1E0000000000000
  %75 = fptosi double %74 to i32
  %76 = getelementptr inbounds nuw i32, ptr %33, i64 %indvars.iv102
  store i32 %75, ptr %76, align 4, !tbaa !28
  %indvars.iv.next103 = add nuw nsw i64 %indvars.iv102, 1
  %exitcond.not = icmp eq i64 %indvars.iv.next103, %wide.trip.count
  br i1 %exitcond.not, label %._crit_edge92.us, label %36, !llvm.loop !53

.lr.ph.us:                                        ; preds = %.lr.ph.us.preheader, %.lr.ph.us
  %indvars.iv = phi i64 [ 0, %.lr.ph.us.preheader ], [ %indvars.iv.next, %.lr.ph.us ]
  %.086.us = phi double [ %41, %.lr.ph.us.preheader ], [ %97, %.lr.ph.us ]
  %77 = getelementptr inbounds nuw float, ptr %19, i64 %indvars.iv
  %78 = load float, ptr %77, align 4, !tbaa !29
  %gep = getelementptr float, ptr %invariant.gep, i64 %indvars.iv
  %79 = load float, ptr %gep, align 4, !tbaa !29
  %80 = getelementptr inbounds nuw i8, ptr %77, i64 4
  %81 = load float, ptr %80, align 4, !tbaa !29
  %82 = getelementptr i8, ptr %gep, i64 4
  %83 = load float, ptr %82, align 4, !tbaa !29
  %84 = fmul nsz float %81, %83
  %85 = tail call nsz float @llvm.fmuladd.f32(float %78, float %79, float %84)
  %86 = getelementptr inbounds nuw i8, ptr %77, i64 8
  %87 = load float, ptr %86, align 4, !tbaa !29
  %88 = getelementptr i8, ptr %gep, i64 8
  %89 = load float, ptr %88, align 4, !tbaa !29
  %90 = tail call nsz float @llvm.fmuladd.f32(float %87, float %89, float %85)
  %91 = getelementptr inbounds nuw i8, ptr %77, i64 12
  %92 = load float, ptr %91, align 4, !tbaa !29
  %93 = getelementptr i8, ptr %gep, i64 12
  %94 = load float, ptr %93, align 4, !tbaa !29
  %95 = tail call nsz float @llvm.fmuladd.f32(float %92, float %94, float %90)
  %96 = fpext nsz float %95 to double
  %97 = fsub nsz double %.086.us, %96
  %indvars.iv.next = add nuw nsw i64 %indvars.iv, 4
  %98 = icmp slt i64 %indvars.iv.next, %24
  br i1 %98, label %.lr.ph.us, label %._crit_edge.us.loopexit, !llvm.loop !54

._crit_edge92.us:                                 ; preds = %56
  %indvars.iv.next106 = add nuw nsw i64 %indvars.iv105, 1
  %99 = load i32, ptr %12, align 8, !tbaa !47
  %100 = sext i32 %99 to i64
  %101 = icmp slt i64 %indvars.iv.next106, %100
  br i1 %101, label %.lr.ph91.us, label %._crit_edge97, !llvm.loop !55

._crit_edge97:                                    ; preds = %._crit_edge92.us, %.lr.ph96, %5
  %.079.lcssa = phi i32 [ %7, %5 ], [ %7, %.lr.ph96 ], [ %57, %._crit_edge92.us ]
  store i32 %.079.lcssa, ptr %6, align 4, !tbaa !33
  ret void
}